; Function Attrs: nounwind uwtable
define void @Abc_NtkDeleteAll_rec(ptr noundef %0) local_unnamed_addr #0 {
  %2 = tail call noalias dereferenceable_or_null(16) ptr @malloc(i64 noundef 16) #11
  %3 = getelementptr inbounds nuw i8, ptr %2, i64 4
  store i32 0, ptr %3, align 4, !tbaa !32
  store i32 100, ptr %2, align 8, !tbaa !34
  %4 = tail call noalias dereferenceable_or_null(800) ptr @malloc(i64 noundef 800) #11
  %5 = getelementptr inbounds nuw i8, ptr %2, i64 8
  store ptr %4, ptr %5, align 8, !tbaa !35
  tail call void @Abc_NodeCollectFanins(ptr noundef %0, ptr noundef nonnull %2) #10
  tail call void @Abc_NtkDeleteObj(ptr noundef %0)
  %.val14 = load i32, ptr %3, align 4, !tbaa !32
  %6 = icmp sgt i32 %.val14, 0
  br i1 %6, label %.lr.ph, label %.critedge

.lr.ph:                                           ; preds = %1, %15
  %.val17 = phi i32 [ %.val, %15 ], [ %.val14, %1 ]
  %indvars.iv = phi i64 [ %indvars.iv.next, %15 ], [ 0, %1 ]
  %.val11 = load ptr, ptr %5, align 8, !tbaa !35
  %7 = getelementptr inbounds nuw ptr, ptr %.val11, i64 %indvars.iv
  %8 = load ptr, ptr %7, align 8, !tbaa !36
  %9 = getelementptr i8, ptr %8, i64 20
  %.val12 = load i32, ptr %9, align 4
  %10 = and i32 %.val12, 15
  %.not = icmp eq i32 %10, 7
  br i1 %.not, label %15, label %11

11:                                               ; preds = %.lr.ph
  %12 = getelementptr i8, ptr %8, i64 44
  %.val13 = load i32, ptr %12, align 4, !tbaa !53
  %13 = icmp eq i32 %.val13, 0
  br i1 %13, label %14, label %15

14:                                               ; preds = %11
  tail call void @Abc_NtkDeleteAll_rec(ptr noundef nonnull %8)
  %.val.pre = load i32, ptr %3, align 4, !tbaa !32
  br label %15

15:                                               ; preds = %.lr.ph, %11, %14
  %.val = phi i32 [ %.val17, %.lr.ph ], [ %.val17, %11 ], [ %.val.pre, %14 ]
  %indvars.iv.next = add nuw nsw i64 %indvars.iv, 1
  %16 = sext i32 %.val to i64
  %17 = icmp slt i64 %indvars.iv.next, %16
  br i1 %17, label %.lr.ph, label %.critedge, !llvm.loop !56

.critedge:                                        ; preds = %15, %1
  %18 = load ptr, ptr %5, align 8, !tbaa !35
  %.not.i = icmp eq ptr %18, null
  br i1 %.not.i, label %Vec_PtrFree.exit, label %19

19:                                               ; preds = %.critedge
  tail call void @free(ptr noundef nonnull %18) #10
  br label %Vec_PtrFree.exit

Vec_PtrFree.exit:                                 ; preds = %.critedge, %19
  tail call void @free(ptr noundef nonnull %2) #10
  ret void
}